; Function Attrs: mustprogress nounwind uwtable
define hidden noundef ptr @_ZNK14GenerateOopMap18get_basic_block_atEi(ptr nocapture noundef nonnull readonly align 8 dereferenceable(176) %0, i32 noundef %1) local_unnamed_addr #0 align 2 {
  %3 = getelementptr inbounds i8, ptr %0, i64 96
  %4 = load ptr, ptr %3, align 8
  %5 = getelementptr inbounds i8, ptr %0, i64 108
  %6 = load i32, ptr %5, align 4
  %7 = add nsw i32 %6, -1
  %.not28.i = icmp slt i32 %6, 1
  br i1 %.not28.i, label %._crit_edge.i, label %.lr.ph.i

.lr.ph.i:                                         ; preds = %2, %22
  %.02230.i = phi i32 [ %.1.i, %22 ], [ 0, %2 ]
  %.02329.i = phi i32 [ %.124.i, %22 ], [ %7, %2 ]
  %8 = add nuw nsw i32 %.02329.i, %.02230.i
  %9 = lshr i32 %8, 1
  %10 = zext nneg i32 %9 to i64
  %11 = getelementptr inbounds %class.BasicBlock, ptr %4, i64 %10
  %12 = getelementptr inbounds i8, ptr %11, i64 4
  %13 = load i32, ptr %12, align 4
  %14 = icmp eq i32 %9, %7
  br i1 %14, label %_ZNK14GenerateOopMap26get_basic_block_containingEi.exit, label %15

15:                                               ; preds = %.lr.ph.i
  %16 = add nuw nsw i32 %9, 1
  %.not27.i = icmp sgt i32 %13, %1
  br i1 %.not27.i, label %22, label %17

17:                                               ; preds = %15
  %18 = zext nneg i32 %16 to i64
  %19 = getelementptr inbounds %class.BasicBlock, ptr %4, i64 %18, i32 1
  %20 = load i32, ptr %19, align 4
  %21 = icmp sgt i32 %20, %1
  br i1 %21, label %_ZNK14GenerateOopMap26get_basic_block_containingEi.exit, label %22

22:                                               ; preds = %17, %15
  %23 = icmp slt i32 %13, %1
  %24 = add nsw i32 %9, -1
  %.124.i = select i1 %23, i32 %.02329.i, i32 %24
  %.1.i = select i1 %23, i32 %16, i32 %.02230.i
  %.not.i = icmp sgt i32 %.1.i, %.124.i
  br i1 %.not.i, label %._crit_edge.i, label %.lr.ph.i, !llvm.loop !16

._crit_edge.i:                                    ; preds = %22, %2
  %25 = load ptr, ptr @g_assert_poison, align 8
  store i8 88, ptr %25, align 1
  tail call void (i32, ptr, i32, ptr, ...) @_Z12report_fatal11VMErrorTypePKciS1_z(i32 noundef -536870912, ptr noundef nonnull @.str, i32 noundef 651, ptr noundef nonnull @.str.24) #19
  unreachable

_ZNK14GenerateOopMap26get_basic_block_containingEi.exit: ; preds = %.lr.ph.i, %17
  ret ptr %11
}